target datalayout = "e-m:e-p270:32:32-p271:32:32-p272:64:64-i64:64-i128:128-f80:128-n8:16:32:64-S128"
target triple = "x86_64-pc-linux-gnu"

%class.QString = type { %struct.QArrayDataPointer }
%struct.QArrayDataPointer = type { ptr, ptr, i64 }
%class.RtpStreamDialog = type { %class.WiresharkDialog.base, ptr, %struct._rtpstream_tapinfo, ptr, ptr, ptr, ptr, ptr, ptr, %class.QMenu, i8, %class.QList.1 }
%class.WiresharkDialog.base = type <{ %class.GeometryStateDialog, ptr, i8, [7 x i8], %class.QString, %class.QList, i32, i8 }>
%class.GeometryStateDialog = type { %class.QDialog, %class.QString }
%class.QDialog = type { %class.QWidget }
%class.QWidget = type { %class.QObject, %class.QPaintDevice.base, ptr }
%class.QObject = type { ptr, %class.QScopedPointer }
%class.QScopedPointer = type { ptr }
%class.QPaintDevice.base = type <{ ptr, i16 }>
%class.QList = type { %struct.QArrayDataPointer.0 }
%struct.QArrayDataPointer.0 = type { ptr, ptr, i64 }
%struct._rtpstream_tapinfo = type { ptr, ptr, ptr, ptr, i32, ptr, ptr, i32, i32, ptr, ptr, ptr, i32, i32 }
%class.QMenu = type { %class.QWidget }
%class.QList.1 = type { %struct.QArrayDataPointer.4 }
%struct.QArrayDataPointer.4 = type { ptr, ptr, i64 }
%class.Ui_RtpStreamDialog = type { ptr, ptr, ptr, ptr, ptr, ptr, ptr, ptr, ptr, ptr, ptr, ptr, ptr, ptr, ptr, ptr, ptr, ptr, ptr, ptr, ptr, ptr, ptr, ptr, ptr }

; Function Attrs: mustprogress uwtable
define void @_ZN15RtpStreamDialog12captureEventE12CaptureEvent(ptr noundef nonnull align 8 dereferenceable(360) %0, ptr noundef %1) #0 align 2 {
  %3 = alloca ptr, align 8
  %4 = alloca ptr, align 8
  store ptr %0, ptr %3, align 8
  store ptr %1, ptr %4, align 8
  %5 = load ptr, ptr %3, align 8
  %6 = call noundef i32 @_ZNK12CaptureEvent14captureContextEv(ptr noundef nonnull align 8 dereferenceable(40) %1)
  %7 = icmp eq i32 %6, 2050
  br i1 %7, label %8, label %22

8:                                                ; preds = %2
  %9 = call noundef i32 @_ZNK12CaptureEvent9eventTypeEv(ptr noundef nonnull align 8 dereferenceable(40) %1)
  switch i32 %9, label %20 [
    i32 2, label %10
    i32 4, label %15
  ]

10:                                               ; preds = %8
  %11 = getelementptr inbounds %class.RtpStreamDialog, ptr %5, i32 0, i32 1
  %12 = load ptr, ptr %11, align 8
  %13 = getelementptr inbounds %class.Ui_RtpStreamDialog, ptr %12, i32 0, i32 21
  %14 = load ptr, ptr %13, align 8
  call void @_ZN7QWidget10setEnabledEb(ptr noundef nonnull align 8 dereferenceable(40) %14, i1 noundef zeroext false)
  br label %21

15:                                               ; preds = %8
  %16 = getelementptr inbounds %class.RtpStreamDialog, ptr %5, i32 0, i32 1
  %17 = load ptr, ptr %16, align 8
  %18 = getelementptr inbounds %class.Ui_RtpStreamDialog, ptr %17, i32 0, i32 21
  %19 = load ptr, ptr %18, align 8
  call void @_ZN7QWidget10setEnabledEb(ptr noundef nonnull align 8 dereferenceable(40) %19, i1 noundef zeroext true)
  br label %21

20:                                               ; preds = %8
  br label %21

21:                                               ; preds = %20, %15, %10
  br label %22

22:                                               ; preds = %21, %2
  ret void
}