; Function Attrs: mustprogress uwtable
define void @_ZN15RtpStreamDialog12captureEventE12CaptureEvent(ptr nocapture noundef nonnull readonly align 8 dereferenceable(360) %0, ptr noundef nonnull %1) local_unnamed_addr #0 align 2 {
  %3 = tail call noundef i32 @_ZNK12CaptureEvent14captureContextEv(ptr noundef nonnull align 8 dereferenceable(40) %1)
  %4 = icmp eq i32 %3, 2050
  br i1 %4, label %5, label %12

5:                                                ; preds = %2
  %6 = tail call noundef i32 @_ZNK12CaptureEvent9eventTypeEv(ptr noundef nonnull align 8 dereferenceable(40) %1)
  switch i32 %6, label %12 [
    i32 2, label %.sink.split
    i32 4, label %7
  ]

7:                                                ; preds = %5
  br label %.sink.split

.sink.split:                                      ; preds = %5, %7
  %.sink1 = phi i1 [ true, %7 ], [ false, %5 ]
  %8 = getelementptr inbounds i8, ptr %0, i64 136
  %9 = load ptr, ptr %8, align 8
  %10 = getelementptr inbounds i8, ptr %9, i64 168
  %11 = load ptr, ptr %10, align 8
  tail call void @_ZN7QWidget10setEnabledEb(ptr noundef nonnull align 8 dereferenceable(40) %11, i1 noundef zeroext %.sink1)
  br label %12

12:                                               ; preds = %.sink.split, %5, %2
  ret void
}